; ModuleID = '55/139.c'
source_filename = "55/139.c"
target datalayout = "e-m:e-p270:32:32-p271:32:32-p272:64:64-i64:64-f80:128-n8:16:32:64-S128"
target triple = "x86_64-pc-linux-gnu"

@.str = private unnamed_addr constant [9 x i8] c"%d %s %d\00", align 1
@.str.1 = private unnamed_addr constant [3 x i8] c"%c\00", align 1
@.str.2 = private unnamed_addr constant [2 x i8] c"\0A\00", align 1

; Function Attrs: noinline nounwind uwtable
define dso_local void @main() #0 {
  %1 = alloca i32, align 4
  %2 = alloca i32, align 4
  %3 = alloca i32, align 4
  %4 = alloca [100 x i32], align 16
  %5 = alloca i32, align 4
  %6 = alloca i32, align 4
  %7 = alloca i32, align 4
  %8 = alloca i32, align 4
  %9 = alloca i32, align 4
  %10 = alloca i32, align 4
  %11 = alloca [100 x i8], align 16
  %12 = alloca [100 x i8], align 16
  store i32 0, i32* %8, align 4
  %13 = getelementptr inbounds [100 x i8], [100 x i8]* %11, i64 0, i64 0
  %14 = call i32 (i8*, ...) @__isoc99_scanf(i8* getelementptr inbounds ([9 x i8], [9 x i8]* @.str, i64 0, i64 0), i32* %2, i8* %13, i32* %3)
  %15 = getelementptr inbounds [100 x i8], [100 x i8]* %11, i64 0, i64 0
  %16 = call i64 @strlen(i8* %15) #4
  %17 = trunc i64 %16 to i32
  store i32 %17, i32* %1, align 4
  store i32 0, i32* %5, align 4
  br label %18

18:                                               ; preds = %68, %0
  %19 = load i32, i32* %5, align 4
  %20 = load i32, i32* %1, align 4
  %21 = icmp slt i32 %19, %20
  br i1 %21, label %22, label %71

22:                                               ; preds = %18
  %23 = load i32, i32* %5, align 4
  %24 = sext i32 %23 to i64
  %25 = getelementptr inbounds [100 x i8], [100 x i8]* %11, i64 0, i64 %24
  %26 = load i8, i8* %25, align 1
  %27 = sext i8 %26 to i32
  %28 = icmp sle i32 %27, 57
  br i1 %28, label %29, label %39

29:                                               ; preds = %22
  %30 = load i32, i32* %5, align 4
  %31 = sext i32 %30 to i64
  %32 = getelementptr inbounds [100 x i8], [100 x i8]* %11, i64 0, i64 %31
  %33 = load i8, i8* %32, align 1
  %34 = sext i8 %33 to i32
  %35 = sub nsw i32 %34, 48
  %36 = load i32, i32* %5, align 4
  %37 = sext i32 %36 to i64
  %38 = getelementptr inbounds [100 x i32], [100 x i32]* %4, i64 0, i64 %37
  store i32 %35, i32* %38, align 4
  br label %67

39:                                               ; preds = %22
  %40 = load i32, i32* %5, align 4
  %41 = sext i32 %40 to i64
  %42 = getelementptr inbounds [100 x i8], [100 x i8]* %11, i64 0, i64 %41
  %43 = load i8, i8* %42, align 1
  %44 = sext i8 %43 to i32
  %45 = icmp sge i32 %44, 97
  br i1 %45, label %46, label %56

46:                                               ; preds = %39
  %47 = load i32, i32* %5, align 4
  %48 = sext i32 %47 to i64
  %49 = getelementptr inbounds [100 x i8], [100 x i8]* %11, i64 0, i64 %48
  %50 = load i8, i8* %49, align 1
  %51 = sext i8 %50 to i32
  %52 = sub nsw i32 %51, 87
  %53 = load i32, i32* %5, align 4
  %54 = sext i32 %53 to i64
  %55 = getelementptr inbounds [100 x i32], [100 x i32]* %4, i64 0, i64 %54
  store i32 %52, i32* %55, align 4
  br label %66

56:                                               ; preds = %39
  %57 = load i32, i32* %5, align 4
  %58 = sext i32 %57 to i64
  %59 = getelementptr inbounds [100 x i8], [100 x i8]* %11, i64 0, i64 %58
  %60 = load i8, i8* %59, align 1
  %61 = sext i8 %60 to i32
  %62 = sub nsw i32 %61, 55
  %63 = load i32, i32* %5, align 4
  %64 = sext i32 %63 to i64
  %65 = getelementptr inbounds [100 x i32], [100 x i32]* %4, i64 0, i64 %64
  store i32 %62, i32* %65, align 4
  br label %66

66:                                               ; preds = %56, %46
  br label %67

67:                                               ; preds = %66, %29
  br label %68

68:                                               ; preds = %67
  %69 = load i32, i32* %5, align 4
  %70 = add nsw i32 %69, 1
  store i32 %70, i32* %5, align 4
  br label %18

71:                                               ; preds = %18
  store i32 0, i32* %5, align 4
  br label %72

72:                                               ; preds = %95, %71
  %73 = load i32, i32* %5, align 4
  %74 = load i32, i32* %1, align 4
  %75 = icmp slt i32 %73, %74
  br i1 %75, label %76, label %98

76:                                               ; preds = %72
  %77 = load i32, i32* %8, align 4
  %78 = sitofp i32 %77 to double
  %79 = load i32, i32* %2, align 4
  %80 = sitofp i32 %79 to double
  %81 = load i32, i32* %1, align 4
  %82 = load i32, i32* %5, align 4
  %83 = sub nsw i32 %81, %82
  %84 = sub nsw i32 %83, 1
  %85 = sitofp i32 %84 to double
  %86 = call double @pow(double %80, double %85) #5
  %87 = load i32, i32* %5, align 4
  %88 = sext i32 %87 to i64
  %89 = getelementptr inbounds [100 x i32], [100 x i32]* %4, i64 0, i64 %88
  %90 = load i32, i32* %89, align 4
  %91 = sitofp i32 %90 to double
  %92 = fmul double %86, %91
  %93 = fadd double %78, %92
  %94 = fptosi double %93 to i32
  store i32 %94, i32* %8, align 4
  br label %95

95:                                               ; preds = %76
  %96 = load i32, i32* %5, align 4
  %97 = add nsw i32 %96, 1
  store i32 %97, i32* %5, align 4
  br label %72

98:                                               ; preds = %72
  store i32 0, i32* %6, align 4
  br label %99

99:                                               ; preds = %165, %98
  %100 = load i32, i32* %8, align 4
  %101 = load i32, i32* %3, align 4
  %102 = srem i32 %100, %101
  store i32 %102, i32* %9, align 4
  %103 = load i32, i32* %8, align 4
  %104 = load i32, i32* %3, align 4
  %105 = sdiv i32 %103, %104
  store i32 %105, i32* %8, align 4
  %106 = load i32, i32* %8, align 4
  %107 = icmp eq i32 %106, 0
  br i1 %107, label %108, label %136

108:                                              ; preds = %99
  %109 = load i32, i32* %9, align 4
  %110 = icmp sle i32 %109, 9
  br i1 %110, label %111, label %121

111:                                              ; preds = %108
  %112 = load i32, i32* %9, align 4
  %113 = icmp sge i32 %112, 0
  br i1 %113, label %114, label %121

114:                                              ; preds = %111
  %115 = load i32, i32* %9, align 4
  %116 = add nsw i32 %115, 48
  %117 = trunc i32 %116 to i8
  %118 = load i32, i32* %6, align 4
  %119 = sext i32 %118 to i64
  %120 = getelementptr inbounds [100 x i8], [100 x i8]* %12, i64 0, i64 %119
  store i8 %117, i8* %120, align 1
  br label %168

121:                                              ; preds = %111, %108
  %122 = load i32, i32* %9, align 4
  %123 = icmp sgt i32 %122, 9
  br i1 %123, label %124, label %134

124:                                              ; preds = %121
  %125 = load i32, i32* %9, align 4
  %126 = icmp sle i32 %125, 35
  br i1 %126, label %127, label %134

127:                                              ; preds = %124
  %128 = load i32, i32* %9, align 4
  %129 = add nsw i32 %128, 55
  %130 = trunc i32 %129 to i8
  %131 = load i32, i32* %6, align 4
  %132 = sext i32 %131 to i64
  %133 = getelementptr inbounds [100 x i8], [100 x i8]* %12, i64 0, i64 %132
  store i8 %130, i8* %133, align 1
  br label %168

134:                                              ; preds = %124, %121
  br label %135

135:                                              ; preds = %134
  br label %164

136:                                              ; preds = %99
  %137 = load i32, i32* %9, align 4
  %138 = icmp sle i32 %137, 9
  br i1 %138, label %139, label %149

139:                                              ; preds = %136
  %140 = load i32, i32* %9, align 4
  %141 = icmp sge i32 %140, 0
  br i1 %141, label %142, label %149

142:                                              ; preds = %139
  %143 = load i32, i32* %9, align 4
  %144 = add nsw i32 %143, 48
  %145 = trunc i32 %144 to i8
  %146 = load i32, i32* %6, align 4
  %147 = sext i32 %146 to i64
  %148 = getelementptr inbounds [100 x i8], [100 x i8]* %12, i64 0, i64 %147
  store i8 %145, i8* %148, align 1
  br label %163

149:                                              ; preds = %139, %136
  %150 = load i32, i32* %9, align 4
  %151 = icmp sgt i32 %150, 9
  br i1 %151, label %152, label %162

152:                                              ; preds = %149
  %153 = load i32, i32* %9, align 4
  %154 = icmp sle i32 %153, 35
  br i1 %154, label %155, label %162

155:                                              ; preds = %152
  %156 = load i32, i32* %9, align 4
  %157 = add nsw i32 %156, 55
  %158 = trunc i32 %157 to i8
  %159 = load i32, i32* %6, align 4
  %160 = sext i32 %159 to i64
  %161 = getelementptr inbounds [100 x i8], [100 x i8]* %12, i64 0, i64 %160
  store i8 %158, i8* %161, align 1
  br label %162

162:                                              ; preds = %155, %152, %149
  br label %163

163:                                              ; preds = %162, %142
  br label %164

164:                                              ; preds = %163, %135
  br label %165

165:                                              ; preds = %164
  %166 = load i32, i32* %6, align 4
  %167 = add nsw i32 %166, 1
  store i32 %167, i32* %6, align 4
  br label %99

168:                                              ; preds = %127, %114
  store i32 0, i32* %7, align 4
  br label %169

169:                                              ; preds = %183, %168
  %170 = load i32, i32* %7, align 4
  %171 = load i32, i32* %6, align 4
  %172 = add nsw i32 %171, 1
  %173 = icmp slt i32 %170, %172
  br i1 %173, label %174, label %186

174:                                              ; preds = %169
  %175 = load i32, i32* %6, align 4
  %176 = load i32, i32* %7, align 4
  %177 = sub nsw i32 %175, %176
  %178 = sext i32 %177 to i64
  %179 = getelementptr inbounds [100 x i8], [100 x i8]* %12, i64 0, i64 %178
  %180 = load i8, i8* %179, align 1
  %181 = sext i8 %180 to i32
  %182 = call i32 (i8*, ...) @printf(i8* getelementptr inbounds ([3 x i8], [3 x i8]* @.str.1, i64 0, i64 0), i32 %181)
  br label %183

183:                                              ; preds = %174
  %184 = load i32, i32* %7, align 4
  %185 = add nsw i32 %184, 1
  store i32 %185, i32* %7, align 4
  br label %169

186:                                              ; preds = %169
  %187 = call i32 (i8*, ...) @printf(i8* getelementptr inbounds ([2 x i8], [2 x i8]* @.str.2, i64 0, i64 0))
  ret void
}

declare dso_local i32 @__isoc99_scanf(i8*, ...) #1

; Function Attrs: nounwind readonly
declare dso_local i64 @strlen(i8*) #2

; Function Attrs: nounwind
declare dso_local double @pow(double, double) #3

declare dso_local i32 @printf(i8*, ...) #1


!llvm.module.flags = !{!0}
!llvm.ident = !{!1}

!0 = !{i32 1, !"wchar_size", i32 4}
!1 = !{!"clang version 10.0.0-4ubuntu1 "}
